target datalayout = "e-m:e-p270:32:32-p271:32:32-p272:64:64-i64:64-i128:128-f80:128-n8:16:32:64-S128"
target triple = "x86_64-pc-linux-gnu"

@.str.35 = private unnamed_addr constant [14 x i8] c"Invalid value\00", align 1
@.str.36 = private unnamed_addr constant [16 x i8] c"Value too large\00", align 1

; Function Attrs: null_pointer_is_valid sspstrong uwtable
define internal zeroext i1 @uat_fld_chk_num_check_result(i1 noundef zeroext %0, ptr noundef %1, ptr noundef %2) #0 {
  %4 = alloca i8, align 1
  %5 = alloca ptr, align 8
  %6 = alloca ptr, align 8
  %7 = zext i1 %0 to i8
  store i8 %7, ptr %4, align 1
  store ptr %1, ptr %5, align 8
  store ptr %2, ptr %6, align 8
  %8 = load i8, ptr %4, align 1, !range !6, !noundef !7
  %9 = trunc i8 %8 to i1
  br i1 %9, label %10, label %22

10:                                               ; preds = %3
  %11 = load ptr, ptr %5, align 8
  %12 = load i8, ptr %11, align 1
  %13 = sext i8 %12 to i32
  %14 = icmp ne i32 %13, 0
  br i1 %14, label %15, label %22

15:                                               ; preds = %10
  %16 = load ptr, ptr %5, align 8
  %17 = load i8, ptr %16, align 1
  %18 = sext i8 %17 to i32
  %19 = icmp ne i32 %18, 32
  br i1 %19, label %20, label %22

20:                                               ; preds = %15
  store i8 0, ptr %4, align 1
  %21 = call ptr @__errno_location() #17
  store i32 22, ptr %21, align 4
  br label %22

22:                                               ; preds = %20, %15, %10, %3
  %23 = load i8, ptr %4, align 1, !range !6, !noundef !7
  %24 = trunc i8 %23 to i1
  br i1 %24, label %41, label %25

25:                                               ; preds = %22
  %26 = call ptr @__errno_location() #17
  %27 = load i32, ptr %26, align 4
  switch i32 %27, label %34 [
    i32 22, label %28
    i32 34, label %31
  ]

28:                                               ; preds = %25
  %29 = call noalias ptr @g_strdup(ptr noundef @.str.35)
  %30 = load ptr, ptr %6, align 8
  store ptr %29, ptr %30, align 8
  br label %40

31:                                               ; preds = %25
  %32 = call noalias ptr @g_strdup(ptr noundef @.str.36)
  %33 = load ptr, ptr %6, align 8
  store ptr %32, ptr %33, align 8
  br label %40

34:                                               ; preds = %25
  %35 = call ptr @__errno_location() #17
  %36 = load i32, ptr %35, align 4
  %37 = call ptr @g_strerror(i32 noundef %36) #17
  %38 = call noalias ptr @g_strdup(ptr noundef %37)
  %39 = load ptr, ptr %6, align 8
  store ptr %38, ptr %39, align 8
  br label %40

40:                                               ; preds = %34, %31, %28
  br label %41

41:                                               ; preds = %40, %22
  %42 = load i8, ptr %4, align 1, !range !6, !noundef !7
  %43 = trunc i8 %42 to i1
  ret i1 %43
}

; Function Attrs: null_pointer_is_valid sspstrong uwtable
define internal zeroext i1 @uat_fld_chk_num64(i32 noundef %0, ptr noundef %1, i32 noundef %2, ptr noundef %3) #0 {
  %5 = alloca i1, align 1
  %6 = alloca i32, align 4
  %7 = alloca ptr, align 8
  %8 = alloca i32, align 4
  %9 = alloca ptr, align 8
  %10 = alloca ptr, align 8
  %11 = alloca ptr, align 8
  %12 = alloca i8, align 1
  %13 = alloca i64, align 8
  store i32 %0, ptr %6, align 4
  store ptr %1, ptr %7, align 8
  store i32 %2, ptr %8, align 4
  store ptr %3, ptr %9, align 8
  %14 = load i32, ptr %8, align 4
  %15 = icmp ugt i32 %14, 0
  br i1 %15, label %16, label %34

16:                                               ; preds = %4
  call void @llvm.lifetime.start.p0(i64 8, ptr %10) #13
  %17 = load ptr, ptr %7, align 8
  %18 = load i32, ptr %8, align 4
  %19 = zext i32 %18 to i64
  %20 = call noalias ptr @g_strndup(ptr noundef %17, i64 noundef %19)
  store ptr %20, ptr %10, align 8
  call void @llvm.lifetime.start.p0(i64 8, ptr %11) #13
  call void @llvm.lifetime.start.p0(i64 1, ptr %12) #13
  call void @llvm.lifetime.start.p0(i64 8, ptr %13) #13
  %21 = load ptr, ptr %10, align 8
  %22 = load i32, ptr %6, align 4
  %23 = call zeroext i1 @ws_basestrtou64(ptr noundef %21, ptr noundef %11, ptr noundef %13, i32 noundef %22)
  %24 = zext i1 %23 to i8
  store i8 %24, ptr %12, align 1
  %25 = load i8, ptr %12, align 1, !range !6, !noundef !7
  %26 = trunc i8 %25 to i1
  %27 = load ptr, ptr %11, align 8
  %28 = load ptr, ptr %9, align 8
  %29 = call zeroext i1 @uat_fld_chk_num_check_result(i1 noundef zeroext %26, ptr noundef %27, ptr noundef %28)
  %30 = zext i1 %29 to i8
  store i8 %30, ptr %12, align 1
  %31 = load ptr, ptr %10, align 8
  call void @g_free(ptr noundef %31)
  %32 = load i8, ptr %12, align 1, !range !6, !noundef !7
  %33 = trunc i8 %32 to i1
  store i1 %33, ptr %5, align 1
  call void @llvm.lifetime.end.p0(i64 8, ptr %13) #13
  call void @llvm.lifetime.end.p0(i64 1, ptr %12) #13
  call void @llvm.lifetime.end.p0(i64 8, ptr %11) #13
  call void @llvm.lifetime.end.p0(i64 8, ptr %10) #13
  br label %36

34:                                               ; preds = %4
  %35 = load ptr, ptr %9, align 8
  store ptr null, ptr %35, align 8
  store i1 true, ptr %5, align 1
  br label %36

36:                                               ; preds = %34, %16
  %37 = load i1, ptr %5, align 1
  ret i1 %37
}